target datalayout = "e-m:e-p270:32:32-p271:32:32-p272:64:64-i64:64-i128:128-f80:128-n8:16:32:64-S128"
target triple = "x86_64-pc-linux-gnu"

%struct._object = type { i64, ptr }
%struct._typeobject = type { %struct.PyVarObject, ptr, i64, i64, ptr, i64, ptr, ptr, ptr, ptr, ptr, ptr, ptr, ptr, ptr, ptr, ptr, ptr, ptr, i64, ptr, ptr, ptr, ptr, i64, ptr, ptr, ptr, ptr, ptr, ptr, ptr, ptr, ptr, i64, ptr, ptr, ptr, ptr, ptr, ptr, ptr, ptr, ptr, ptr, ptr, i32, ptr, ptr }
%struct.PyVarObject = type { %struct._object, i64 }

@_Py_NoneStruct = external global %struct._object, align 8

; Function Attrs: mustprogress nounwind uwtable
define internal noundef i32 @_ZL17PyType_HasFeatureP11_typeobjectm(ptr noundef %0, i64 noundef %1) #5 {
  %3 = alloca ptr, align 8
  %4 = alloca i64, align 8
  %5 = alloca i64, align 8
  store ptr %0, ptr %3, align 8
  store i64 %1, ptr %4, align 8
  %6 = load ptr, ptr %3, align 8
  %7 = getelementptr inbounds %struct._typeobject, ptr %6, i32 0, i32 19
  %8 = load i64, ptr %7, align 8
  store i64 %8, ptr %5, align 8
  %9 = load i64, ptr %5, align 8
  %10 = load i64, ptr %4, align 8
  %11 = and i64 %9, %10
  %12 = icmp ne i64 %11, 0
  %13 = zext i1 %12 to i32
  ret i32 %13
}

; Function Attrs: mustprogress uwtable
define hidden noundef zeroext i1 @_Z11pyopencv_toIPvEbP7_objectRT_RK7ArgInfo(ptr noundef %0, ptr noundef nonnull align 8 dereferenceable(8) %1, ptr noundef nonnull align 8 dereferenceable(12) %2) #4 {
  %4 = alloca i1, align 1
  %5 = alloca ptr, align 8
  %6 = alloca ptr, align 8
  %7 = alloca ptr, align 8
  store ptr %0, ptr %5, align 8
  store ptr %1, ptr %6, align 8
  store ptr %2, ptr %7, align 8
  %8 = load ptr, ptr %5, align 8
  %9 = icmp ne ptr %8, null
  br i1 %9, label %10, label %13

10:                                               ; preds = %3
  %11 = load ptr, ptr %5, align 8
  %12 = icmp eq ptr %11, @_Py_NoneStruct
  br i1 %12, label %13, label %14

13:                                               ; preds = %10, %3
  store i1 true, ptr %4, align 1
  br label %34

14:                                               ; preds = %10
  %15 = load ptr, ptr %5, align 8
  %16 = getelementptr inbounds %struct._object, ptr %15, i32 0, i32 1
  %17 = load ptr, ptr %16, align 8
  %18 = call noundef i32 @_ZL17PyType_HasFeatureP11_typeobjectm(ptr noundef %17, i64 noundef 16777216)
  %19 = icmp ne i32 %18, 0
  br i1 %19, label %21, label %20

20:                                               ; preds = %14
  store i1 false, ptr %4, align 1
  br label %34

21:                                               ; preds = %14
  %22 = load ptr, ptr %5, align 8
  %23 = call ptr @PyLong_AsVoidPtr(ptr noundef %22)
  %24 = load ptr, ptr %6, align 8
  store ptr %23, ptr %24, align 8
  %25 = load ptr, ptr %6, align 8
  %26 = load ptr, ptr %25, align 8
  %27 = icmp ne ptr %26, null
  br i1 %27, label %28, label %32

28:                                               ; preds = %21
  %29 = call ptr @PyErr_Occurred()
  %30 = icmp ne ptr %29, null
  %31 = xor i1 %30, true
  br label %32

32:                                               ; preds = %28, %21
  %33 = phi i1 [ false, %21 ], [ %31, %28 ]
  store i1 %33, ptr %4, align 1
  br label %34

34:                                               ; preds = %32, %20, %13
  %35 = load i1, ptr %4, align 1
  ret i1 %35
}