; Function Attrs: mustprogress uwtable
define hidden noundef zeroext i1 @_Z11pyopencv_toIPvEbP7_objectRT_RK7ArgInfo(ptr noundef %0, ptr nocapture noundef nonnull writeonly align 8 dereferenceable(8) %1, ptr nocapture noundef nonnull readnone align 8 dereferenceable(12) %2) local_unnamed_addr #3 {
  %4 = icmp eq ptr %0, null
  %5 = icmp eq ptr %0, @_Py_NoneStruct
  %or.cond = or i1 %4, %5
  br i1 %or.cond, label %15, label %6

6:                                                ; preds = %3
  %7 = getelementptr inbounds i8, ptr %0, i64 8
  %8 = load ptr, ptr %7, align 8
  %9 = getelementptr i8, ptr %8, i64 168
  %.val = load i64, ptr %9, align 8
  %10 = and i64 %.val, 16777216
  %.not = icmp eq i64 %10, 0
  br i1 %.not, label %15, label %11

11:                                               ; preds = %6
  %12 = tail call ptr @PyLong_AsVoidPtr(ptr noundef nonnull %0)
  store ptr %12, ptr %1, align 8
  %.not9 = icmp eq ptr %12, null
  br i1 %.not9, label %15, label %13

13:                                               ; preds = %11
  %14 = tail call ptr @PyErr_Occurred()
  %.not10 = icmp eq ptr %14, null
  br label %15

15:                                               ; preds = %11, %13, %6, %3
  %.0 = phi i1 [ true, %3 ], [ false, %6 ], [ false, %11 ], [ %.not10, %13 ]
  ret i1 %.0
}